target datalayout = "e-m:e-p270:32:32-p271:32:32-p272:64:64-i64:64-i128:128-f80:128-n8:16:32:64-S128"
target triple = "x86_64-pc-linux-gnu"

%struct.slurm_conf_t = type { i64, ptr, i16, ptr, ptr, ptr, ptr, ptr, i16, ptr, ptr, ptr, ptr, ptr, ptr, ptr, i16, ptr, ptr, ptr, ptr, i16, ptr, ptr, ptr, i64, ptr, ptr, ptr, ptr, i16, ptr, ptr, i16, i32, ptr, i32, ptr, i32, i32, ptr, ptr, i64, i64, ptr, i16, i16, ptr, i32, i32, ptr, i32, ptr, i32, i16, i16, i16, ptr, i16, i16, ptr, ptr, i32, i16, i16, ptr, i32, i16, ptr, ptr, ptr, ptr, i16, ptr, ptr, ptr, ptr, i32, ptr, ptr, ptr, ptr, i16, i16, ptr, i32, i32, i32, i16, i16, ptr, ptr, i16, ptr, ptr, i32, i32, i32, i32, i32, i64, i32, i32, i16, ptr, ptr, i32, ptr, ptr, ptr, i16, i32, ptr, ptr, i16, ptr, ptr, i32, i16, ptr, ptr, ptr, ptr, i32, i32, i16, i16, i32, ptr, i16, ptr, i32, i32, i32, i32, i32, i32, ptr, i16, ptr, ptr, i32, i16, ptr, i32, i16, i16, ptr, ptr, ptr, i16, ptr, ptr, ptr, ptr, i16, i16, ptr, i16, ptr, i16, ptr, i16, ptr, i16, ptr, ptr, ptr, ptr, i16, ptr, ptr, ptr, i32, ptr, i32, ptr, ptr, i16, ptr, ptr, i32, i16, ptr, ptr, i16, i16, ptr, i16, ptr, ptr, ptr, i32, ptr, i16, i16, ptr, ptr, ptr, ptr, ptr, ptr, ptr, ptr, i16, i32, i16, ptr, ptr, ptr, ptr, i32, ptr, ptr, ptr, i16, ptr, ptr, ptr, i16, ptr, i16, ptr, i16, i16, ptr }
%struct.signal_tasks_msg = type { i16, i16, %struct.slurm_step_id_msg }
%struct.slurm_step_id_msg = type { i64, i32, i32, i32 }
%struct.resource_allocation_response_msg = type { ptr, i32, ptr, i32, i32, i32, ptr, ptr, i32, ptr, i32, i32, ptr, ptr, i32, ptr, i16, i16, i16, i16, i32, ptr, i64, ptr, ptr, ptr, ptr, i32, ptr, ptr }
%struct.slurm_msg = type { %struct.sockaddr_storage, ptr, i32, i32, i32, i8, i32, i8, i32, ptr, ptr, i32, ptr, ptr, i16, i8, i16, i16, %struct.forward, ptr, %struct.sockaddr_storage, ptr }
%struct.forward = type { %struct.slurm_node_alias_addrs_t, i16, i16, ptr, i32, i16, i16 }
%struct.slurm_node_alias_addrs_t = type { i64, ptr, ptr, i32, ptr }
%struct.sockaddr_storage = type { i16, [118 x i8], i64 }
%struct.job_step_info_response_msg = type { i64, i32, ptr, ptr }
%struct.job_step_info_t = type { i32, i32, ptr, ptr, ptr, i32, i32, i32, ptr, ptr, ptr, ptr, ptr, ptr, i32, i32, ptr, ptr, i64, ptr, i32, i64, i16, i32, %struct.slurm_step_id_msg, ptr, i32, i32, ptr, ptr, ptr, ptr, ptr, ptr, ptr, i32 }

@.str.2 = private unnamed_addr constant [32 x i8] c"%s: No batch_host in allocation\00", align 1
@__func__._signal_batch_script_step = private unnamed_addr constant [26 x i8] c"_signal_batch_script_step\00", align 1
@slurm_conf = external global %struct.slurm_conf_t, align 8
@.str.3 = private unnamed_addr constant [53 x i8] c"%s: can't find address for host %s, check slurm.conf\00", align 1
@.str.4 = private unnamed_addr constant [7 x i8] c"%s: %m\00", align 1

; Function Attrs: nounwind uwtable
define internal i32 @_signal_job_step(ptr noundef %0, i16 noundef zeroext %1) #0 {
  %3 = alloca ptr, align 8
  %4 = alloca i16, align 2
  %5 = alloca %struct.signal_tasks_msg, align 8
  %6 = alloca i32, align 4
  store ptr %0, ptr %3, align 8
  store i16 %1, ptr %4, align 2
  call void @llvm.lifetime.start.p0(i64 32, ptr %5) #6
  call void @llvm.lifetime.start.p0(i64 4, ptr %6) #6
  store i32 0, ptr %6, align 4
  call void @llvm.memset.p0.i64(ptr align 8 %5, i8 0, i64 32, i1 false)
  %7 = getelementptr inbounds nuw %struct.signal_tasks_msg, ptr %5, i32 0, i32 2
  %8 = load ptr, ptr %3, align 8
  %9 = getelementptr inbounds nuw %struct.job_step_info_t, ptr %8, i32 0, i32 24
  call void @llvm.memcpy.p0.p0.i64(ptr align 8 %7, ptr align 8 %9, i64 24, i1 false)
  %10 = load i16, ptr %4, align 2
  %11 = getelementptr inbounds nuw %struct.signal_tasks_msg, ptr %5, i32 0, i32 1
  store i16 %10, ptr %11, align 2
  %12 = load ptr, ptr %3, align 8
  %13 = getelementptr inbounds nuw %struct.job_step_info_t, ptr %12, i32 0, i32 12
  %14 = load ptr, ptr %13, align 8
  %15 = call i32 @_local_send_recv_rc_msgs(ptr noundef %14, i32 noundef 6004, ptr noundef %5)
  store i32 %15, ptr %6, align 4
  %16 = load i32, ptr %6, align 4
  call void @llvm.lifetime.end.p0(i64 4, ptr %6) #6
  call void @llvm.lifetime.end.p0(i64 32, ptr %5) #6
  ret i32 %16
}

; Function Attrs: nounwind uwtable
define internal i32 @_signal_batch_script_step(ptr noundef %0, i32 noundef %1) #0 {
  %3 = alloca i32, align 4
  %4 = alloca ptr, align 8
  %5 = alloca i32, align 4
  %6 = alloca %struct.slurm_msg, align 8
  %7 = alloca %struct.signal_tasks_msg, align 8
  %8 = alloca i32, align 4
  %9 = alloca ptr, align 8
  %10 = alloca i32, align 4
  store ptr %0, ptr %4, align 8
  store i32 %1, ptr %5, align 4
  call void @llvm.lifetime.start.p0(i64 424, ptr %6) #6
  call void @llvm.lifetime.start.p0(i64 32, ptr %7) #6
  call void @llvm.lifetime.start.p0(i64 4, ptr %8) #6
  store i32 0, ptr %8, align 4
  call void @llvm.lifetime.start.p0(i64 8, ptr %9) #6
  %11 = load ptr, ptr %4, align 8
  %12 = getelementptr inbounds nuw %struct.resource_allocation_response_msg, ptr %11, i32 0, i32 2
  %13 = load ptr, ptr %12, align 8
  store ptr %13, ptr %9, align 8
  %14 = load ptr, ptr %9, align 8
  %15 = icmp ne ptr %14, null
  br i1 %15, label %18, label %16

16:                                               ; preds = %2
  %17 = call i32 (ptr, ...) @error(ptr noundef @.str.2, ptr noundef @__func__._signal_batch_script_step)
  store i32 -1, ptr %3, align 4
  store i32 1, ptr %10, align 4
  br label %51

18:                                               ; preds = %2
  call void @llvm.memset.p0.i64(ptr align 8 %7, i8 0, i64 32, i1 false)
  %19 = load ptr, ptr %4, align 8
  %20 = getelementptr inbounds nuw %struct.resource_allocation_response_msg, ptr %19, i32 0, i32 1
  %21 = load i32, ptr %20, align 8
  %22 = getelementptr inbounds nuw %struct.signal_tasks_msg, ptr %7, i32 0, i32 2
  %23 = getelementptr inbounds nuw %struct.slurm_step_id_msg, ptr %22, i32 0, i32 1
  store i32 %21, ptr %23, align 8
  %24 = getelementptr inbounds nuw %struct.signal_tasks_msg, ptr %7, i32 0, i32 2
  %25 = getelementptr inbounds nuw %struct.slurm_step_id_msg, ptr %24, i32 0, i32 3
  store i32 -5, ptr %25, align 8
  %26 = getelementptr inbounds nuw %struct.signal_tasks_msg, ptr %7, i32 0, i32 2
  %27 = getelementptr inbounds nuw %struct.slurm_step_id_msg, ptr %26, i32 0, i32 2
  store i32 -2, ptr %27, align 4
  %28 = load i32, ptr %5, align 4
  %29 = trunc i32 %28 to i16
  %30 = getelementptr inbounds nuw %struct.signal_tasks_msg, ptr %7, i32 0, i32 1
  store i16 %29, ptr %30, align 2
  %31 = getelementptr inbounds nuw %struct.signal_tasks_msg, ptr %7, i32 0, i32 0
  store i16 1, ptr %31, align 8
  call void @slurm_msg_t_init(ptr noundef %6)
  %32 = load i32, ptr getelementptr inbounds nuw (%struct.slurm_conf_t, ptr @slurm_conf, i32 0, i32 175), align 8
  call void @slurm_msg_set_r_uid(ptr noundef %6, i32 noundef %32)
  %33 = getelementptr inbounds nuw %struct.slurm_msg, ptr %6, i32 0, i32 16
  store i16 6004, ptr %33, align 4
  %34 = getelementptr inbounds nuw %struct.slurm_msg, ptr %6, i32 0, i32 13
  store ptr %7, ptr %34, align 8
  %35 = load ptr, ptr %9, align 8
  %36 = getelementptr inbounds nuw %struct.slurm_msg, ptr %6, i32 0, i32 0
  %37 = getelementptr inbounds nuw %struct.slurm_msg, ptr %6, i32 0, i32 14
  %38 = load i16, ptr %37, align 8
  %39 = call i32 @slurm_conf_get_addr(ptr noundef %35, ptr noundef %36, i16 noundef zeroext %38)
  %40 = icmp eq i32 %39, -1
  br i1 %40, label %41, label %44

41:                                               ; preds = %18
  %42 = load ptr, ptr %9, align 8
  %43 = call i32 (ptr, ...) @error(ptr noundef @.str.3, ptr noundef @__func__._signal_batch_script_step, ptr noundef %42)
  store i32 -1, ptr %3, align 4
  store i32 1, ptr %10, align 4
  br label %51

44:                                               ; preds = %18
  %45 = call i32 @slurm_send_recv_rc_msg_only_one(ptr noundef %6, ptr noundef %8, i32 noundef 0)
  %46 = icmp slt i32 %45, 0
  br i1 %46, label %47, label %49

47:                                               ; preds = %44
  %48 = call i32 (ptr, ...) @error(ptr noundef @.str.4, ptr noundef @__func__._signal_batch_script_step)
  store i32 -1, ptr %8, align 4
  br label %49

49:                                               ; preds = %47, %44
  %50 = load i32, ptr %8, align 4
  store i32 %50, ptr %3, align 4
  store i32 1, ptr %10, align 4
  br label %51

51:                                               ; preds = %49, %41, %16
  call void @llvm.lifetime.end.p0(i64 8, ptr %9) #6
  call void @llvm.lifetime.end.p0(i64 4, ptr %8) #6
  call void @llvm.lifetime.end.p0(i64 32, ptr %7) #6
  call void @llvm.lifetime.end.p0(i64 424, ptr %6) #6
  %52 = load i32, ptr %3, align 4
  ret i32 %52
}

; Function Attrs: nounwind uwtable
define dso_local i32 @slurm_signal_job_step(i32 noundef %0, i32 noundef %1, i32 noundef %2) #0 {
  %4 = alloca i32, align 4
  %5 = alloca i32, align 4
  %6 = alloca i32, align 4
  %7 = alloca i32, align 4
  %8 = alloca ptr, align 8
  %9 = alloca i32, align 4
  %10 = alloca i32, align 4
  %11 = alloca i32, align 4
  %12 = alloca ptr, align 8
  %13 = alloca i32, align 4
  store i32 %0, ptr %5, align 4
  store i32 %1, ptr %6, align 4
  store i32 %2, ptr %7, align 4
  call void @llvm.lifetime.start.p0(i64 8, ptr %8) #6
  store ptr null, ptr %8, align 8
  call void @llvm.lifetime.start.p0(i64 4, ptr %9) #6
  call void @llvm.lifetime.start.p0(i64 4, ptr %10) #6
  call void @llvm.lifetime.start.p0(i64 4, ptr %11) #6
  store i32 0, ptr %11, align 4
  %14 = load i32, ptr %6, align 4
  %15 = icmp eq i32 %14, -5
  br i1 %15, label %16, label %32

16:                                               ; preds = %3
  call void @llvm.lifetime.start.p0(i64 8, ptr %12) #6
  store ptr null, ptr %12, align 8
  %17 = load i32, ptr %5, align 4
  %18 = call i32 @slurm_allocation_lookup(i32 noundef %17, ptr noundef %12)
  %19 = icmp ne i32 %18, 0
  br i1 %19, label %20, label %21

20:                                               ; preds = %16
  store i32 -1, ptr %4, align 4
  store i32 1, ptr %13, align 4
  br label %31

21:                                               ; preds = %16
  %22 = load ptr, ptr %12, align 8
  %23 = load i32, ptr %7, align 4
  %24 = call i32 @_signal_batch_script_step(ptr noundef %22, i32 noundef %23)
  store i32 %24, ptr %9, align 4
  %25 = load ptr, ptr %12, align 8
  call void @slurm_free_resource_allocation_response_msg(ptr noundef %25)
  %26 = load i32, ptr %9, align 4
  %27 = call ptr @__errno_location() #7
  store i32 %26, ptr %27, align 4
  %28 = load i32, ptr %9, align 4
  %29 = icmp ne i32 %28, 0
  %30 = select i1 %29, i32 -1, i32 0
  store i32 %30, ptr %4, align 4
  store i32 1, ptr %13, align 4
  br label %31

31:                                               ; preds = %21, %20
  call void @llvm.lifetime.end.p0(i64 8, ptr %12) #6
  br label %95

32:                                               ; preds = %3
  %33 = load i32, ptr %5, align 4
  %34 = load i32, ptr %6, align 4
  %35 = call i32 @slurm_get_job_steps(i64 noundef 0, i32 noundef %33, i32 noundef %34, ptr noundef %8, i16 noundef zeroext 1)
  store i32 %35, ptr %9, align 4
  %36 = load i32, ptr %9, align 4
  %37 = icmp ne i32 %36, 0
  br i1 %37, label %38, label %41

38:                                               ; preds = %32
  %39 = call ptr @__errno_location() #7
  %40 = load i32, ptr %39, align 4
  store i32 %40, ptr %11, align 4
  br label %89

41:                                               ; preds = %32
  store i32 0, ptr %10, align 4
  br label %42

42:                                               ; preds = %84, %41
  %43 = load i32, ptr %10, align 4
  %44 = load ptr, ptr %8, align 8
  %45 = getelementptr inbounds nuw %struct.job_step_info_response_msg, ptr %44, i32 0, i32 1
  %46 = load i32, ptr %45, align 8
  %47 = icmp ult i32 %43, %46
  br i1 %47, label %48, label %87

48:                                               ; preds = %42
  %49 = load ptr, ptr %8, align 8
  %50 = getelementptr inbounds nuw %struct.job_step_info_response_msg, ptr %49, i32 0, i32 2
  %51 = load ptr, ptr %50, align 8
  %52 = load i32, ptr %10, align 4
  %53 = sext i32 %52 to i64
  %54 = getelementptr inbounds %struct.job_step_info_t, ptr %51, i64 %53
  %55 = getelementptr inbounds nuw %struct.job_step_info_t, ptr %54, i32 0, i32 24
  %56 = getelementptr inbounds nuw %struct.slurm_step_id_msg, ptr %55, i32 0, i32 1
  %57 = load i32, ptr %56, align 8
  %58 = load i32, ptr %5, align 4
  %59 = icmp eq i32 %57, %58
  br i1 %59, label %60, label %83

60:                                               ; preds = %48
  %61 = load ptr, ptr %8, align 8
  %62 = getelementptr inbounds nuw %struct.job_step_info_response_msg, ptr %61, i32 0, i32 2
  %63 = load ptr, ptr %62, align 8
  %64 = load i32, ptr %10, align 4
  %65 = sext i32 %64 to i64
  %66 = getelementptr inbounds %struct.job_step_info_t, ptr %63, i64 %65
  %67 = getelementptr inbounds nuw %struct.job_step_info_t, ptr %66, i32 0, i32 24
  %68 = getelementptr inbounds nuw %struct.slurm_step_id_msg, ptr %67, i32 0, i32 3
  %69 = load i32, ptr %68, align 8
  %70 = load i32, ptr %6, align 4
  %71 = icmp eq i32 %69, %70
  br i1 %71, label %72, label %83

72:                                               ; preds = %60
  %73 = load ptr, ptr %8, align 8
  %74 = getelementptr inbounds nuw %struct.job_step_info_response_msg, ptr %73, i32 0, i32 2
  %75 = load ptr, ptr %74, align 8
  %76 = load i32, ptr %10, align 4
  %77 = sext i32 %76 to i64
  %78 = getelementptr inbounds %struct.job_step_info_t, ptr %75, i64 %77
  %79 = load i32, ptr %7, align 4
  %80 = trunc i32 %79 to i16
  %81 = call i32 @_signal_job_step(ptr noundef %78, i16 noundef zeroext %80)
  store i32 %81, ptr %9, align 4
  %82 = load i32, ptr %9, align 4
  store i32 %82, ptr %11, align 4
  br label %87

83:                                               ; preds = %60, %48
  br label %84

84:                                               ; preds = %83
  %85 = load i32, ptr %10, align 4
  %86 = add nsw i32 %85, 1
  store i32 %86, ptr %10, align 4
  br label %42, !llvm.loop !11

87:                                               ; preds = %72, %42
  %88 = load ptr, ptr %8, align 8
  call void @slurm_free_job_step_info_response_msg(ptr noundef %88)
  br label %89

89:                                               ; preds = %87, %38
  %90 = load i32, ptr %11, align 4
  %91 = call ptr @__errno_location() #7
  store i32 %90, ptr %91, align 4
  %92 = load i32, ptr %9, align 4
  %93 = icmp ne i32 %92, 0
  %94 = select i1 %93, i32 -1, i32 0
  store i32 %94, ptr %4, align 4
  store i32 1, ptr %13, align 4
  br label %95

95:                                               ; preds = %89, %31
  call void @llvm.lifetime.end.p0(i64 4, ptr %11) #6
  call void @llvm.lifetime.end.p0(i64 4, ptr %10) #6
  call void @llvm.lifetime.end.p0(i64 4, ptr %9) #6
  call void @llvm.lifetime.end.p0(i64 8, ptr %8) #6
  %96 = load i32, ptr %4, align 4
  ret i32 %96
}