; Function Attrs: nounwind uwtable
define dso_local range(i32 -1, 1) i32 @slurm_signal_job_step(i32 noundef %0, i32 noundef %1, i32 noundef %2) local_unnamed_addr #0 {
  %4 = alloca %struct.signal_tasks_msg, align 8
  %5 = alloca %struct.slurm_msg, align 8
  %6 = alloca %struct.signal_tasks_msg, align 8
  %7 = alloca i32, align 4
  %8 = alloca ptr, align 8
  %9 = alloca ptr, align 8
  call void @llvm.lifetime.start.p0(i64 8, ptr nonnull %8) #6
  store ptr null, ptr %8, align 8
  %10 = icmp eq i32 %1, -5
  br i1 %10, label %11, label %45

11:                                               ; preds = %3
  call void @llvm.lifetime.start.p0(i64 8, ptr nonnull %9) #6
  store ptr null, ptr %9, align 8
  %12 = call i32 @slurm_allocation_lookup(i32 noundef %0, ptr noundef nonnull %9) #6
  %.not29 = icmp eq i32 %12, 0
  br i1 %.not29, label %13, label %44

13:                                               ; preds = %11
  %14 = load ptr, ptr %9, align 8
  call void @llvm.lifetime.start.p0(i64 424, ptr nonnull %5) #6
  call void @llvm.lifetime.start.p0(i64 32, ptr nonnull %6) #6
  call void @llvm.lifetime.start.p0(i64 4, ptr nonnull %7) #6
  store i32 0, ptr %7, align 4
  %15 = getelementptr inbounds nuw i8, ptr %14, i64 16
  %16 = load ptr, ptr %15, align 8
  %.not.i = icmp eq ptr %16, null
  br i1 %.not.i, label %17, label %19

17:                                               ; preds = %13
  %18 = call i32 (ptr, ...) @error(ptr noundef nonnull @.str.2, ptr noundef nonnull @__func__._signal_batch_script_step) #6
  br label %_signal_batch_script_step.exit

19:                                               ; preds = %13
  call void @llvm.memset.p0.i64(ptr noundef nonnull align 8 dereferenceable(32) %6, i8 0, i64 32, i1 false)
  %20 = getelementptr inbounds nuw i8, ptr %14, i64 8
  %21 = load i32, ptr %20, align 8
  %22 = getelementptr inbounds nuw i8, ptr %6, i64 16
  store i32 %21, ptr %22, align 8
  %23 = getelementptr inbounds nuw i8, ptr %6, i64 24
  store i32 -5, ptr %23, align 8
  %24 = getelementptr inbounds nuw i8, ptr %6, i64 20
  store i32 -2, ptr %24, align 4
  %25 = trunc i32 %2 to i16
  %26 = getelementptr inbounds nuw i8, ptr %6, i64 2
  store i16 %25, ptr %26, align 2
  store i16 1, ptr %6, align 8
  call void @slurm_msg_t_init(ptr noundef nonnull %5) #6
  %27 = load i32, ptr getelementptr inbounds nuw (i8, ptr @slurm_conf, i64 1168), align 8
  call void @slurm_msg_set_r_uid(ptr noundef nonnull %5, i32 noundef %27) #6
  %28 = getelementptr inbounds nuw i8, ptr %5, i64 212
  store i16 6004, ptr %28, align 4
  %29 = getelementptr inbounds nuw i8, ptr %5, i64 200
  store ptr %6, ptr %29, align 8
  %30 = getelementptr inbounds nuw i8, ptr %5, i64 208
  %31 = load i16, ptr %30, align 8
  %32 = call i32 @slurm_conf_get_addr(ptr noundef nonnull %16, ptr noundef nonnull %5, i16 noundef zeroext %31) #6
  %33 = icmp eq i32 %32, -1
  br i1 %33, label %34, label %36

34:                                               ; preds = %19
  %35 = call i32 (ptr, ...) @error(ptr noundef nonnull @.str.3, ptr noundef nonnull @__func__._signal_batch_script_step, ptr noundef nonnull %16) #6
  br label %_signal_batch_script_step.exit

36:                                               ; preds = %19
  %37 = call i32 @slurm_send_recv_rc_msg_only_one(ptr noundef nonnull %5, ptr noundef nonnull %7, i32 noundef 0) #6
  %38 = icmp slt i32 %37, 0
  br i1 %38, label %39, label %._crit_edge.i

._crit_edge.i:                                    ; preds = %36
  %.pre.i = load i32, ptr %7, align 4
  br label %_signal_batch_script_step.exit

39:                                               ; preds = %36
  %40 = call i32 (ptr, ...) @error(ptr noundef nonnull @.str.4, ptr noundef nonnull @__func__._signal_batch_script_step) #6
  br label %_signal_batch_script_step.exit

_signal_batch_script_step.exit:                   ; preds = %17, %34, %._crit_edge.i, %39
  %.0.i = phi i32 [ -1, %34 ], [ -1, %17 ], [ %.pre.i, %._crit_edge.i ], [ -1, %39 ]
  call void @llvm.lifetime.end.p0(i64 4, ptr nonnull %7) #6
  call void @llvm.lifetime.end.p0(i64 32, ptr nonnull %6) #6
  call void @llvm.lifetime.end.p0(i64 424, ptr nonnull %5) #6
  %41 = load ptr, ptr %9, align 8
  call void @slurm_free_resource_allocation_response_msg(ptr noundef %41) #6
  %42 = tail call ptr @__errno_location() #7
  store i32 %.0.i, ptr %42, align 4
  %.not30 = icmp ne i32 %.0.i, 0
  %43 = sext i1 %.not30 to i32
  br label %44

44:                                               ; preds = %11, %_signal_batch_script_step.exit
  %.023 = phi i32 [ %43, %_signal_batch_script_step.exit ], [ -1, %11 ]
  call void @llvm.lifetime.end.p0(i64 8, ptr nonnull %9) #6
  br label %77

45:                                               ; preds = %3
  %46 = call i32 @slurm_get_job_steps(i64 noundef 0, i32 noundef %0, i32 noundef %1, ptr noundef nonnull %8, i16 noundef zeroext 1) #6
  %.not = icmp eq i32 %46, 0
  br i1 %.not, label %.preheader, label %52

.preheader:                                       ; preds = %45
  %47 = load ptr, ptr %8, align 8
  %48 = getelementptr inbounds nuw i8, ptr %47, i64 8
  %49 = load i32, ptr %48, align 8
  %.not32 = icmp eq i32 %49, 0
  br i1 %.not32, label %.loopexit, label %.lr.ph

.lr.ph:                                           ; preds = %.preheader
  %50 = getelementptr inbounds nuw i8, ptr %47, i64 16
  %51 = load ptr, ptr %50, align 8
  %wide.trip.count = zext i32 %49 to i64
  br label %55

52:                                               ; preds = %45
  %53 = tail call ptr @__errno_location() #7
  %54 = load i32, ptr %53, align 4
  br label %76

55:                                               ; preds = %.lr.ph, %72
  %indvars.iv = phi i64 [ 0, %.lr.ph ], [ %indvars.iv.next, %72 ]
  %56 = getelementptr inbounds nuw %struct.job_step_info_t, ptr %51, i64 %indvars.iv
  %57 = getelementptr inbounds nuw i8, ptr %56, i64 168
  %58 = load i32, ptr %57, align 8
  %59 = icmp eq i32 %58, %0
  br i1 %59, label %60, label %72

60:                                               ; preds = %55
  %61 = getelementptr inbounds nuw i8, ptr %56, i64 176
  %62 = load i32, ptr %61, align 8
  %63 = icmp eq i32 %62, %1
  br i1 %63, label %64, label %72

64:                                               ; preds = %60
  %65 = trunc i32 %2 to i16
  call void @llvm.lifetime.start.p0(i64 32, ptr nonnull %4) #6
  store i64 0, ptr %4, align 8
  %66 = getelementptr inbounds nuw i8, ptr %4, i64 8
  %67 = getelementptr inbounds nuw i8, ptr %56, i64 160
  call void @llvm.memcpy.p0.p0.i64(ptr noundef nonnull align 8 dereferenceable(24) %66, ptr noundef nonnull readonly align 8 dereferenceable(24) %67, i64 24, i1 false)
  %68 = getelementptr inbounds nuw i8, ptr %4, i64 2
  store i16 %65, ptr %68, align 2
  %69 = getelementptr inbounds nuw i8, ptr %56, i64 80
  %70 = load ptr, ptr %69, align 8
  %71 = call fastcc i32 @_local_send_recv_rc_msgs(ptr noundef %70, i32 noundef 6004, ptr noundef %4)
  call void @llvm.lifetime.end.p0(i64 32, ptr nonnull %4) #6
  %.pre = load ptr, ptr %8, align 8
  br label %.loopexit

72:                                               ; preds = %55, %60
  %indvars.iv.next = add nuw nsw i64 %indvars.iv, 1
  %exitcond.not = icmp eq i64 %indvars.iv.next, %wide.trip.count
  br i1 %exitcond.not, label %.loopexit, label %55, !llvm.loop !11

.loopexit:                                        ; preds = %72, %.preheader, %64
  %73 = phi ptr [ %.pre, %64 ], [ %47, %.preheader ], [ %47, %72 ]
  %.1 = phi i32 [ %71, %64 ], [ 0, %.preheader ], [ 0, %72 ]
  call void @slurm_free_job_step_info_response_msg(ptr noundef %73) #6
  %74 = icmp ne i32 %.1, 0
  %75 = sext i1 %74 to i32
  %.pre35 = tail call ptr @__errno_location() #7
  br label %76

76:                                               ; preds = %.loopexit, %52
  %.pre-phi = phi ptr [ %.pre35, %.loopexit ], [ %53, %52 ]
  %.021 = phi i32 [ %75, %.loopexit ], [ -1, %52 ]
  %.0 = phi i32 [ %.1, %.loopexit ], [ %54, %52 ]
  store i32 %.0, ptr %.pre-phi, align 4
  br label %77

77:                                               ; preds = %76, %44
  %.124 = phi i32 [ %.023, %44 ], [ %.021, %76 ]
  call void @llvm.lifetime.end.p0(i64 8, ptr nonnull %8) #6
  ret i32 %.124
}